target datalayout = "e-m:e-p270:32:32-p271:32:32-p272:64:64-i64:64-i128:128-f80:128-n8:16:32:64-S128"
target triple = "x86_64-pc-linux-gnu"

%class.aiVector3t = type { double, double, double }
%"class.Assimp::IFC::Curve" = type { ptr, ptr, ptr }
%"struct.Assimp::IFC::Schema_2x3::IfcCurve.base" = type { %"struct.Assimp::IFC::Schema_2x3::IfcGeometricRepresentationItem.base", [7 x i8], %"struct.Assimp::STEP::ObjectHelper.base.3" }
%"struct.Assimp::IFC::Schema_2x3::IfcGeometricRepresentationItem.base" = type { %"struct.Assimp::IFC::Schema_2x3::IfcRepresentationItem.base", [7 x i8], %"struct.Assimp::STEP::ObjectHelper.base.1" }
%"struct.Assimp::IFC::Schema_2x3::IfcRepresentationItem.base" = type { %"struct.Assimp::STEP::ObjectHelper.base" }
%"struct.Assimp::STEP::ObjectHelper.base" = type <{ ptr, i8 }>
%"struct.Assimp::STEP::ObjectHelper.base.1" = type <{ ptr, i8 }>
%"struct.Assimp::STEP::ObjectHelper.base.3" = type <{ ptr, i8 }>
%"class.std::bitset" = type { %"struct.std::_Base_bitset" }
%"struct.std::_Base_bitset" = type { i64 }
%"class.Assimp::STEP::Object" = type { ptr, i64, ptr }
%"class.std::__shared_count" = type { ptr }
%"struct.Assimp::IFC::ConversionData" = type { double, double, i8, ptr, ptr, ptr, %class.aiMatrix4x4t, %"class.std::vector.13", %"class.std::vector.18", %"class.std::map", %"class.std::map.26", ptr, ptr, ptr, %"class.std::set" }
%class.aiMatrix4x4t = type { double, double, double, double, double, double, double, double, double, double, double, double, double, double, double, double }
%"class.std::vector.13" = type { %"struct.std::_Vector_base.14" }
%"struct.std::_Vector_base.14" = type { %"struct.std::_Vector_base<aiMesh *, std::allocator<aiMesh *>>::_Vector_impl" }
%"struct.std::_Vector_base<aiMesh *, std::allocator<aiMesh *>>::_Vector_impl" = type { %"struct.std::_Vector_base<aiMesh *, std::allocator<aiMesh *>>::_Vector_impl_data" }
%"struct.std::_Vector_base<aiMesh *, std::allocator<aiMesh *>>::_Vector_impl_data" = type { ptr, ptr, ptr }
%"class.std::vector.18" = type { %"struct.std::_Vector_base.19" }
%"struct.std::_Vector_base.19" = type { %"struct.std::_Vector_base<aiMaterial *, std::allocator<aiMaterial *>>::_Vector_impl" }
%"struct.std::_Vector_base<aiMaterial *, std::allocator<aiMaterial *>>::_Vector_impl" = type { %"struct.std::_Vector_base<aiMaterial *, std::allocator<aiMaterial *>>::_Vector_impl_data" }
%"struct.std::_Vector_base<aiMaterial *, std::allocator<aiMaterial *>>::_Vector_impl_data" = type { ptr, ptr, ptr }
%"class.std::map" = type { %"class.std::_Rb_tree" }
%"class.std::_Rb_tree" = type { %"struct.std::_Rb_tree<Assimp::IFC::ConversionData::MeshCacheIndex, std::pair<const Assimp::IFC::ConversionData::MeshCacheIndex, std::set<unsigned int>>, std::_Select1st<std::pair<const Assimp::IFC::ConversionData::MeshCacheIndex, std::set<unsigned int>>>, std::less<Assimp::IFC::ConversionData::MeshCacheIndex>>::_Rb_tree_impl" }
%"struct.std::_Rb_tree<Assimp::IFC::ConversionData::MeshCacheIndex, std::pair<const Assimp::IFC::ConversionData::MeshCacheIndex, std::set<unsigned int>>, std::_Select1st<std::pair<const Assimp::IFC::ConversionData::MeshCacheIndex, std::set<unsigned int>>>, std::less<Assimp::IFC::ConversionData::MeshCacheIndex>>::_Rb_tree_impl" = type { [8 x i8], %"struct.std::_Rb_tree_header" }
%"struct.std::_Rb_tree_header" = type { %"struct.std::_Rb_tree_node_base", i64 }
%"struct.std::_Rb_tree_node_base" = type { i32, ptr, ptr, ptr }
%"class.std::map.26" = type { %"class.std::_Rb_tree.27" }
%"class.std::_Rb_tree.27" = type { %"struct.std::_Rb_tree<const Assimp::IFC::Schema_2x3::IfcSurfaceStyle *, std::pair<const Assimp::IFC::Schema_2x3::IfcSurfaceStyle *const, unsigned int>, std::_Select1st<std::pair<const Assimp::IFC::Schema_2x3::IfcSurfaceStyle *const, unsigned int>>, std::less<const Assimp::IFC::Schema_2x3::IfcSurfaceStyle *>>::_Rb_tree_impl" }
%"struct.std::_Rb_tree<const Assimp::IFC::Schema_2x3::IfcSurfaceStyle *, std::pair<const Assimp::IFC::Schema_2x3::IfcSurfaceStyle *const, unsigned int>, std::_Select1st<std::pair<const Assimp::IFC::Schema_2x3::IfcSurfaceStyle *const, unsigned int>>, std::less<const Assimp::IFC::Schema_2x3::IfcSurfaceStyle *>>::_Rb_tree_impl" = type { [8 x i8], %"struct.std::_Rb_tree_header" }
%"class.std::set" = type { %"class.std::_Rb_tree.32" }
%"class.std::_Rb_tree.32" = type { %"struct.std::_Rb_tree<unsigned long, unsigned long, std::_Identity<unsigned long>, std::less<unsigned long>>::_Rb_tree_impl" }
%"struct.std::_Rb_tree<unsigned long, unsigned long, std::_Identity<unsigned long>, std::less<unsigned long>>::_Rb_tree_impl" = type { [8 x i8], %"struct.std::_Rb_tree_header" }
%"class.std::shared_ptr.63" = type { %"class.std::__shared_ptr.64" }
%"class.std::__shared_ptr.64" = type { ptr, %"class.std::__shared_count" }
%"class.Assimp::IFC::(anonymous namespace)::Circle" = type { %"class.Assimp::IFC::(anonymous namespace)::Conic", ptr }
%"class.Assimp::IFC::(anonymous namespace)::Conic" = type { %"class.Assimp::IFC::Curve", %class.aiVector3t, [3 x %class.aiVector3t] }
%"struct.Assimp::STEP::ObjectHelper.base.67" = type { ptr, %"class.std::bitset" }
%"struct.Assimp::IFC::Schema_2x3::IfcCircle" = type { %"struct.Assimp::IFC::Schema_2x3::IfcConic.base", %"struct.Assimp::STEP::ObjectHelper.base.69", double, %"class.Assimp::STEP::Object" }
%"struct.Assimp::IFC::Schema_2x3::IfcConic.base" = type { %"struct.Assimp::IFC::Schema_2x3::IfcCurve.base", %"struct.Assimp::STEP::ObjectHelper.base.67", %"class.std::shared_ptr.63" }
%"struct.Assimp::STEP::ObjectHelper.base.69" = type { ptr, %"class.std::bitset" }

; Function Attrs: mustprogress nounwind uwtable
define linkonce_odr hidden void @_ZN10aiVector3tIdEC2Eddd(ptr noundef nonnull align 8 dereferenceable(24) %0, double noundef %1, double noundef %2, double noundef %3) unnamed_addr #2 comdat align 2 {
  %5 = alloca ptr, align 8
  %6 = alloca double, align 8
  %7 = alloca double, align 8
  %8 = alloca double, align 8
  store ptr %0, ptr %5, align 8
  store double %1, ptr %6, align 8
  store double %2, ptr %7, align 8
  store double %3, ptr %8, align 8
  %9 = load ptr, ptr %5, align 8
  %10 = getelementptr inbounds nuw %class.aiVector3t, ptr %9, i32 0, i32 0
  %11 = load double, ptr %6, align 8
  store double %11, ptr %10, align 8
  %12 = getelementptr inbounds nuw %class.aiVector3t, ptr %9, i32 0, i32 1
  %13 = load double, ptr %7, align 8
  store double %13, ptr %12, align 8
  %14 = getelementptr inbounds nuw %class.aiVector3t, ptr %9, i32 0, i32 2
  %15 = load double, ptr %8, align 8
  store double %15, ptr %14, align 8
  ret void
}

; Function Attrs: inlinehint mustprogress uwtable
define linkonce_odr hidden void @_ZplIdE10aiVector3tIT_ERKS2_S4_(ptr dead_on_unwind noalias writable sret(%class.aiVector3t) align 8 %0, ptr noundef nonnull align 8 dereferenceable(24) %1, ptr noundef nonnull align 8 dereferenceable(24) %2) #8 comdat {
  %4 = alloca ptr, align 8
  %5 = alloca ptr, align 8
  store ptr %1, ptr %4, align 8
  store ptr %2, ptr %5, align 8
  %6 = load ptr, ptr %4, align 8
  %7 = getelementptr inbounds nuw %class.aiVector3t, ptr %6, i32 0, i32 0
  %8 = load double, ptr %7, align 8
  %9 = load ptr, ptr %5, align 8
  %10 = getelementptr inbounds nuw %class.aiVector3t, ptr %9, i32 0, i32 0
  %11 = load double, ptr %10, align 8
  %12 = fadd double %8, %11
  %13 = load ptr, ptr %4, align 8
  %14 = getelementptr inbounds nuw %class.aiVector3t, ptr %13, i32 0, i32 1
  %15 = load double, ptr %14, align 8
  %16 = load ptr, ptr %5, align 8
  %17 = getelementptr inbounds nuw %class.aiVector3t, ptr %16, i32 0, i32 1
  %18 = load double, ptr %17, align 8
  %19 = fadd double %15, %18
  %20 = load ptr, ptr %4, align 8
  %21 = getelementptr inbounds nuw %class.aiVector3t, ptr %20, i32 0, i32 2
  %22 = load double, ptr %21, align 8
  %23 = load ptr, ptr %5, align 8
  %24 = getelementptr inbounds nuw %class.aiVector3t, ptr %23, i32 0, i32 2
  %25 = load double, ptr %24, align 8
  %26 = fadd double %22, %25
  call void @_ZN10aiVector3tIdEC2Eddd(ptr noundef nonnull align 8 dereferenceable(24) %0, double noundef %12, double noundef %19, double noundef %26)
  ret void
}

; Function Attrs: inlinehint mustprogress uwtable
define linkonce_odr hidden void @_ZmlIdE10aiVector3tIT_ES1_RKS2_(ptr dead_on_unwind noalias writable sret(%class.aiVector3t) align 8 %0, double noundef %1, ptr noundef nonnull align 8 dereferenceable(24) %2) #8 comdat {
  %4 = alloca double, align 8
  %5 = alloca ptr, align 8
  store double %1, ptr %4, align 8
  store ptr %2, ptr %5, align 8
  %6 = load double, ptr %4, align 8
  %7 = load ptr, ptr %5, align 8
  %8 = getelementptr inbounds nuw %class.aiVector3t, ptr %7, i32 0, i32 0
  %9 = load double, ptr %8, align 8
  %10 = fmul double %6, %9
  %11 = load double, ptr %4, align 8
  %12 = load ptr, ptr %5, align 8
  %13 = getelementptr inbounds nuw %class.aiVector3t, ptr %12, i32 0, i32 1
  %14 = load double, ptr %13, align 8
  %15 = fmul double %11, %14
  %16 = load double, ptr %4, align 8
  %17 = load ptr, ptr %5, align 8
  %18 = getelementptr inbounds nuw %class.aiVector3t, ptr %17, i32 0, i32 2
  %19 = load double, ptr %18, align 8
  %20 = fmul double %16, %19
  call void @_ZN10aiVector3tIdEC2Eddd(ptr noundef nonnull align 8 dereferenceable(24) %0, double noundef %10, double noundef %15, double noundef %20)
  ret void
}

; Function Attrs: mustprogress uwtable
define internal void @_ZNK6Assimp3IFC12_GLOBAL__N_16Circle4EvalEd(ptr dead_on_unwind noalias writable sret(%class.aiVector3t) align 8 %0, ptr noundef nonnull align 8 dereferenceable(128) %1, double noundef %2) unnamed_addr #1 align 2 {
  %4 = alloca ptr, align 8
  %5 = alloca double, align 8
  %6 = alloca %class.aiVector3t, align 8
  %7 = alloca %class.aiVector3t, align 8
  %8 = alloca %class.aiVector3t, align 8
  %9 = alloca %class.aiVector3t, align 8
  store ptr %1, ptr %4, align 8
  store double %2, ptr %5, align 8
  %10 = load ptr, ptr %4, align 8
  %11 = getelementptr inbounds nuw %"class.Assimp::IFC::Curve", ptr %10, i32 0, i32 2
  %12 = load ptr, ptr %11, align 8
  %13 = getelementptr inbounds nuw %"struct.Assimp::IFC::ConversionData", ptr %12, i32 0, i32 1
  %14 = load double, ptr %13, align 8
  %15 = fneg double %14
  %16 = load double, ptr %5, align 8
  %17 = fmul double %15, %16
  store double %17, ptr %5, align 8
  %18 = getelementptr inbounds nuw %"class.Assimp::IFC::(anonymous namespace)::Conic", ptr %10, i32 0, i32 1
  call void @llvm.lifetime.start.p0(i64 24, ptr %6) #19
  %19 = getelementptr inbounds nuw %"class.Assimp::IFC::(anonymous namespace)::Circle", ptr %10, i32 0, i32 1
  %20 = load ptr, ptr %19, align 8
  %21 = getelementptr inbounds nuw %"struct.Assimp::IFC::Schema_2x3::IfcCircle", ptr %20, i32 0, i32 2
  %22 = load double, ptr %21, align 8
  call void @llvm.lifetime.start.p0(i64 24, ptr %7) #19
  call void @llvm.lifetime.start.p0(i64 24, ptr %8) #19
  %23 = load double, ptr %5, align 8
  %24 = call double @cos(double noundef %23) #19
  %25 = getelementptr inbounds nuw %"class.Assimp::IFC::(anonymous namespace)::Conic", ptr %10, i32 0, i32 2
  %26 = getelementptr inbounds [3 x %class.aiVector3t], ptr %25, i64 0, i64 0
  call void @_ZmlIdE10aiVector3tIT_ES1_RKS2_(ptr dead_on_unwind writable sret(%class.aiVector3t) align 8 %8, double noundef %24, ptr noundef nonnull align 8 dereferenceable(24) %26)
  call void @llvm.lifetime.start.p0(i64 24, ptr %9) #19
  %27 = load double, ptr %5, align 8
  %28 = call double @sin(double noundef %27) #19
  %29 = getelementptr inbounds nuw %"class.Assimp::IFC::(anonymous namespace)::Conic", ptr %10, i32 0, i32 2
  %30 = getelementptr inbounds [3 x %class.aiVector3t], ptr %29, i64 0, i64 1
  call void @_ZmlIdE10aiVector3tIT_ES1_RKS2_(ptr dead_on_unwind writable sret(%class.aiVector3t) align 8 %9, double noundef %28, ptr noundef nonnull align 8 dereferenceable(24) %30)
  call void @_ZplIdE10aiVector3tIT_ERKS2_S4_(ptr dead_on_unwind writable sret(%class.aiVector3t) align 8 %7, ptr noundef nonnull align 8 dereferenceable(24) %8, ptr noundef nonnull align 8 dereferenceable(24) %9)
  call void @_ZmlIdE10aiVector3tIT_ES1_RKS2_(ptr dead_on_unwind writable sret(%class.aiVector3t) align 8 %6, double noundef %22, ptr noundef nonnull align 8 dereferenceable(24) %7)
  call void @_ZplIdE10aiVector3tIT_ERKS2_S4_(ptr dead_on_unwind writable sret(%class.aiVector3t) align 8 %0, ptr noundef nonnull align 8 dereferenceable(24) %18, ptr noundef nonnull align 8 dereferenceable(24) %6)
  call void @llvm.lifetime.end.p0(i64 24, ptr %9) #19
  call void @llvm.lifetime.end.p0(i64 24, ptr %8) #19
  call void @llvm.lifetime.end.p0(i64 24, ptr %7) #19
  call void @llvm.lifetime.end.p0(i64 24, ptr %6) #19
  ret void
}