; Function Attrs: mustprogress nofree nounwind willreturn uwtable
define internal void @_ZNK6Assimp3IFC12_GLOBAL__N_16Circle4EvalEd(ptr dead_on_unwind noalias writable writeonly sret(%class.aiVector3t) align 8 captures(none) initializes((0, 24)) %0, ptr noundef nonnull readonly align 8 captures(none) dereferenceable(128) %1, double noundef %2) unnamed_addr #21 align 2 {
  %4 = getelementptr inbounds nuw i8, ptr %1, i64 16
  %5 = load ptr, ptr %4, align 8
  %6 = getelementptr inbounds nuw i8, ptr %5, i64 8
  %7 = load double, ptr %6, align 8
  %8 = fneg double %7
  %9 = fmul double %2, %8
  %10 = getelementptr inbounds nuw i8, ptr %1, i64 24
  %11 = getelementptr inbounds nuw i8, ptr %1, i64 120
  %12 = load ptr, ptr %11, align 8
  %13 = getelementptr inbounds nuw i8, ptr %12, i64 96
  %14 = load double, ptr %13, align 8
  %15 = tail call double @cos(double noundef %9) #31
  %16 = getelementptr inbounds nuw i8, ptr %1, i64 48
  %17 = load double, ptr %16, align 8, !noalias !94
  %18 = fmul double %15, %17
  %19 = getelementptr inbounds nuw i8, ptr %1, i64 56
  %20 = load double, ptr %19, align 8, !noalias !94
  %21 = fmul double %15, %20
  %22 = getelementptr inbounds nuw i8, ptr %1, i64 64
  %23 = load double, ptr %22, align 8, !noalias !94
  %24 = fmul double %15, %23
  %25 = tail call double @sin(double noundef %9) #31
  %26 = getelementptr inbounds nuw i8, ptr %1, i64 72
  %27 = load double, ptr %26, align 8, !noalias !97
  %28 = fmul double %25, %27
  %29 = getelementptr inbounds nuw i8, ptr %1, i64 80
  %30 = load double, ptr %29, align 8, !noalias !97
  %31 = fmul double %25, %30
  %32 = getelementptr inbounds nuw i8, ptr %1, i64 88
  %33 = load double, ptr %32, align 8, !noalias !97
  %34 = fmul double %25, %33
  %35 = fadd double %18, %28
  %36 = fadd double %21, %31
  %37 = fadd double %24, %34
  %38 = fmul double %14, %35
  %39 = fmul double %14, %36
  %40 = fmul double %14, %37
  tail call void @llvm.experimental.noalias.scope.decl(metadata !100)
  %41 = load double, ptr %10, align 8, !noalias !100
  %42 = fadd double %38, %41
  %43 = getelementptr inbounds nuw i8, ptr %1, i64 32
  %44 = load double, ptr %43, align 8, !noalias !100
  %45 = fadd double %39, %44
  %46 = getelementptr inbounds nuw i8, ptr %1, i64 40
  %47 = load double, ptr %46, align 8, !noalias !100
  %48 = fadd double %40, %47
  store double %42, ptr %0, align 8, !alias.scope !100
  %49 = getelementptr inbounds nuw i8, ptr %0, i64 8
  store double %45, ptr %49, align 8, !alias.scope !100
  %50 = getelementptr inbounds nuw i8, ptr %0, i64 16
  store double %48, ptr %50, align 8, !alias.scope !100
  ret void
}